EXPORTS
TEST_RESULT
__Z11test_valuesv
__Z16test_expressionsv
__Z20insist_zero_internaldPKci
__Z21insist_equal_internalddPKci
__Z21insist_equal_internaliiPKci
__Z4testPKcPFvvE
__Z8evaluatePKcRKN3RPN7ContextE
__Z8test_ooov
__Z8test_opsv
__ZN3RPN10Expression5clearEv
__ZN3RPN10Expression5parseERKNSt7__cxx1112basic_stringIcSt11char_traitsIcESaIcEEERKNS_7ContextEiNS0_6FormatE
__ZN3RPN10ExpressionC1ERKNSt7__cxx1112basic_stringIcSt11char_traitsIcESaIcEEERKNS_7ContextEiNS0_6FormatE
__ZN3RPN10ExpressionC1Ev
__ZN3RPN10ExpressionC2ERKNSt7__cxx1112basic_stringIcSt11char_traitsIcESaIcEEERKNS_7ContextEiNS0_6FormatE
__ZN3RPN10ExpressionC2Ev
__ZN3RPN10ExpressionD1Ev
__ZN3RPN10ExpressionD2Ev
__ZN3RPN10ExpressionlsEPKNS_4NodeE
__ZN3RPN10ModuloNodeC1Ev
__ZN3RPN10ModuloNodeC2Ev
__ZN3RPN10ModuloNodeD0Ev
__ZN3RPN10ModuloNodeD1Ev
__ZN3RPN10SecantNodeC1Ev
__ZN3RPN10SecantNodeC2Ev
__ZN3RPN10SecantNodeD0Ev
__ZN3RPN10SecantNodeD1Ev
__ZN3RPN11ArcSineNodeC1Ev
__ZN3RPN11ArcSineNodeC2Ev
__ZN3RPN11ArcSineNodeD0Ev
__ZN3RPN11ArcSineNodeD1Ev
__ZN3RPN11BracketNodeC1Ecc
__ZN3RPN11BracketNodeC2Ecc
__ZN3RPN11BracketNodeD2Ev
__ZN3RPN11InfixParser13parseInternalEv
__ZN3RPN11InfixParser13push_to_stackERNS_6Parser5TokenE
__ZN3RPN11InfixParser3popEv
__ZN3RPN11InfixParser3topEv
__ZN3RPN11InfixParser5clearEv
__ZN3RPN11InfixParser5shuntEv
__ZN3RPN11InfixParserC1ERKNS_7ContextE
__ZN3RPN11InfixParserC1ERKNSt7__cxx1112basic_stringIcSt11char_traitsIcESaIcEEERKNS_7ContextE
__ZN3RPN11InfixParserC2ERKNS_7ContextE
__ZN3RPN11InfixParserC2ERKNSt7__cxx1112basic_stringIcSt11char_traitsIcESaIcEEERKNS_7ContextE
__ZN3RPN11InfixParserD1Ev
__ZN3RPN11MaximumNodeC1Ev
__ZN3RPN11MaximumNodeC2Ev
__ZN3RPN11MaximumNodeD0Ev
__ZN3RPN11MaximumNodeD1Ev
__ZN3RPN11MinimumNodeC1Ev
__ZN3RPN11MinimumNodeC2Ev
__ZN3RPN11MinimumNodeD0Ev
__ZN3RPN11MinimumNodeD1Ev
__ZN3RPN11TangentNodeC1Ev
__ZN3RPN11TangentNodeC2Ev
__ZN3RPN11TangentNodeD0Ev
__ZN3RPN11TangentNodeD1Ev
__ZN3RPN11isValidNameERKNSt7__cxx1112basic_stringIcSt11char_traitsIcESaIcEEE
__ZN3RPN12AdditionNodeC1Ev
__ZN3RPN12AdditionNodeC2Ev
__ZN3RPN12AdditionNodeD0Ev
__ZN3RPN12AdditionNodeD1Ev
__ZN3RPN12ArgumentNodeC1Ei
__ZN3RPN12ArgumentNodeC1Eii
__ZN3RPN12ArgumentNodeC2Ei
__ZN3RPN12ArgumentNodeC2Eii
__ZN3RPN12ArgumentNodeD0Ev
__ZN3RPN12ArgumentNodeD1Ev
__ZN3RPN12ConstantNodeC1Ed
__ZN3RPN12ConstantNodeC2Ed
__ZN3RPN12ConstantNodeD0Ev
__ZN3RPN12ConstantNodeD1Ev
__ZN3RPN12CosecantNodeC1Ev
__ZN3RPN12CosecantNodeC2Ev
__ZN3RPN12CosecantNodeD0Ev
__ZN3RPN12CosecantNodeD1Ev
__ZN3RPN12DivisionNodeC1Ev
__ZN3RPN12DivisionNodeC2Ev
__ZN3RPN12DivisionNodeD0Ev
__ZN3RPN12DivisionNodeD1Ev
__ZN3RPN12FunctionNodeC1Ei
__ZN3RPN12FunctionNodeC2Ei
__ZN3RPN12FunctionNodeD0Ev
__ZN3RPN12FunctionNodeD1Ev
__ZN3RPN12FunctionNodeD2Ev
__ZN3RPN12NegationNodeC1Ev
__ZN3RPN12NegationNodeC2Ev
__ZN3RPN12NegationNodeD0Ev
__ZN3RPN12NegationNodeD1Ev
__ZN3RPN12OperatorNodeC1Eibb
__ZN3RPN12OperatorNodeC2Eibb
__ZN3RPN12OperatorNodeD0Ev
__ZN3RPN12OperatorNodeD1Ev
__ZN3RPN12OperatorNodeD2Ev
__ZN3RPN12VariableNodeC1EPKd
__ZN3RPN12VariableNodeC2EPKd
__ZN3RPN12VariableNodeD0Ev
__ZN3RPN12VariableNodeD1Ev
__ZN3RPN13ArcCosineNodeC1Ev
__ZN3RPN13ArcCosineNodeC2Ev
__ZN3RPN13ArcCosineNodeD0Ev
__ZN3RPN13ArcCosineNodeD1Ev
__ZN3RPN13ArcSecantNodeC1Ev
__ZN3RPN13ArcSecantNodeC2Ev
__ZN3RPN13ArcSecantNodeD0Ev
__ZN3RPN13ArcSecantNodeD1Ev
__ZN3RPN13CotangentNodeC1Ev
__ZN3RPN13CotangentNodeC2Ev
__ZN3RPN13CotangentNodeD0Ev
__ZN3RPN13CotangentNodeD1Ev
__ZN3RPN13FactorialNode5gammaEd
__ZN3RPN13FactorialNode7cHelperE
__ZN3RPN13FactorialNodeC1Ev
__ZN3RPN13FactorialNodeC2Ev
__ZN3RPN13FactorialNodeD0Ev
__ZN3RPN13FactorialNodeD1Ev
__ZN3RPN13LogarithmNodeC1Ev
__ZN3RPN13LogarithmNodeC2Ev
__ZN3RPN13LogarithmNodeD0Ev
__ZN3RPN13LogarithmNodeD1Ev
__ZN3RPN13PostfixParser13parseInternalEv
__ZN3RPN13PostfixParserC1ERKNS_7ContextE
__ZN3RPN13PostfixParserC1ERKNSt7__cxx1112basic_stringIcSt11char_traitsIcESaIcEEERKNS_7ContextE
__ZN3RPN13PostfixParserC2ERKNS_7ContextE
__ZN3RPN13PostfixParserC2ERKNSt7__cxx1112basic_stringIcSt11char_traitsIcESaIcEEERKNS_7ContextE
__ZN3RPN13PostfixParserD1Ev
__ZN3RPN14ArcTangentNodeC1Ev
__ZN3RPN14ArcTangentNodeC2Ev
__ZN3RPN14ArcTangentNodeD0Ev
__ZN3RPN14ArcTangentNodeD1Ev
__ZN3RPN14ExpressionNodeC1EPKNS_10ExpressionE
__ZN3RPN14ExpressionNodeC2EPKNS_10ExpressionE
__ZN3RPN14ExpressionNodeD0Ev
__ZN3RPN14ExpressionNodeD1Ev
__ZN3RPN14SquareRootNodeC1Ev
__ZN3RPN14SquareRootNodeC2Ev
__ZN3RPN14SquareRootNodeD0Ev
__ZN3RPN14SquareRootNodeD1Ev
__ZN3RPN15ArcCosecantNodeC1Ev
__ZN3RPN15ArcCosecantNodeC2Ev
__ZN3RPN15ArcCosecantNodeD0Ev
__ZN3RPN15ArcCosecantNodeD1Ev
__ZN3RPN15ArcTangent2NodeC1Ev
__ZN3RPN15ArcTangent2NodeC2Ev
__ZN3RPN15ArcTangent2NodeD0Ev
__ZN3RPN15ArcTangent2NodeD1Ev
__ZN3RPN15ExponentialNodeC1Ev
__ZN3RPN15ExponentialNodeC2Ev
__ZN3RPN15ExponentialNodeD0Ev
__ZN3RPN15ExponentialNodeD1Ev
__ZN3RPN15LeftBracketNodeC1Ecc
__ZN3RPN15LeftBracketNodeC2Ecc
__ZN3RPN15LeftBracketNodeD0Ev
__ZN3RPN15LeftBracketNodeD1Ev
__ZN3RPN6Parser4nextEv
__ZN3RPN6Parser5TokenC1ERKNSt7__cxx1112basic_stringIcSt11char_traitsIcESaIcEEEPKNS_4NodeE
__ZN3RPN6Parser5TokenC1ERKS1_
__ZN3RPN6Parser5TokenC1Ev
__ZN3RPN6Parser5TokenC2ERKNSt7__cxx1112basic_stringIcSt11char_traitsIcESaIcEEEPKNS_4NodeE
__ZN3RPN6Parser5TokenC2Ev
__ZN3RPN6Parser5TokenD1Ev
__ZN3RPN6Parser5TokenaSERKS1_
__ZN3RPN6Parser5clearEv
__ZN3RPN6Parser5parseERKNSt7__cxx1112basic_stringIcSt11char_traitsIcESaIcEEE
__ZN3RPN6Parser5parseERKNSt7__cxx1112basic_stringIcSt11char_traitsIcESaIcEEERKNS_7ContextE
__ZN3RPN6Parser5storeERNS_10ExpressionE
__ZN3RPN6Parser8cInitialE
__ZN3RPN6ParserC1ERKNS_7ContextE
__ZN3RPN6ParserC2ERKNS_7ContextE
__ZN3RPN6ParserD2Ev
__ZN3RPN7Context4ROOTE
__ZN3RPN7Context6insertERKNSt7__cxx1112basic_stringIcSt11char_traitsIcESaIcEEEPKNS_4NodeE
__ZN3RPN7Context6removeERKNSt7__cxx1112basic_stringIcSt11char_traitsIcESaIcEEE
__ZN3RPN7ContextC1EPKS0_
__ZN3RPN7ContextC1ERKSt3mapIKNSt7__cxx1112basic_stringIcSt11char_traitsIcESaIcEEEPKNS_4NodeESt4lessIS8_ESaISt4pairIS8_SB_EEEPKS0_
__ZN3RPN7ContextC2EPKS0_
__ZN3RPN7ContextC2ERKSt3mapIKNSt7__cxx1112basic_stringIcSt11char_traitsIcESaIcEEEPKNS_4NodeESt4lessIS8_ESaISt4pairIS8_SB_EEEPKS0_
__ZN3RPN7ContextD1Ev
__ZN3RPN7ContextD2Ev
__ZN3RPN8RootNodeC1Ev
__ZN3RPN8RootNodeC2Ev
__ZN3RPN8RootNodeD0Ev
__ZN3RPN8RootNodeD1Ev
__ZN3RPN8SineNodeC1Ev
__ZN3RPN8SineNodeC2Ev
__ZN3RPN8SineNodeD0Ev
__ZN3RPN8SineNodeD1Ev
__ZN3RPN9CommaNodeC1Ev
__ZN3RPN9CommaNodeC2Ev
__ZN3RPN9CommaNodeD0Ev
__ZN3RPN9CommaNodeD1Ev
__ZN3RPN9Evaluator3popEv
__ZN3RPN9Evaluator4bindEv
__ZN3RPN9Evaluator4pushEd
__ZN3RPN9Evaluator7releaseEv
__ZN3RPN9Evaluator7reserveEi
__ZN3RPN9Evaluator8argumentEi
__ZN3RPN9EvaluatorC1Ev
__ZN3RPN9EvaluatorD1Ev
__ZN3RPN9ExceptionC1ERKNSt7__cxx1112basic_stringIcSt11char_traitsIcESaIcEEE
__ZN3RPN9ExceptionC2ERKNSt7__cxx1112basic_stringIcSt11char_traitsIcESaIcEEE
__ZN3RPN9ExceptionD0Ev
__ZN3RPN9ExceptionD1Ev
__ZN3RPN9PowerNodeC1Ev
__ZN3RPN9PowerNodeC2Ev
__ZN3RPN9PowerNodeD0Ev
__ZN3RPN9PowerNodeD1Ev
__ZN3RPN9ValueNodeC1Ev
__ZN3RPN9ValueNodeC2Ev
__ZN3RPN9ValueNodeD0Ev
__ZN3RPN9ValueNodeD1Ev
__ZN3RPN9ValueNodeD2Ev
__ZN9__gnu_cxx13new_allocatorIN3RPN6Parser5TokenEE10deallocateEPS3_j
__ZN9__gnu_cxx13new_allocatorIN3RPN6Parser5TokenEE7destroyIS3_EEvPT_
__ZN9__gnu_cxx13new_allocatorIN3RPN6Parser5TokenEE8allocateEjPKv
__ZN9__gnu_cxx13new_allocatorIN3RPN6Parser5TokenEE9constructIS3_JRKS3_EEEvPT_DpOT0_
__ZN9__gnu_cxx13new_allocatorIN3RPN6Parser5TokenEEC2Ev
__ZN9__gnu_cxx13new_allocatorIN3RPN6Parser5TokenEED2Ev
__ZN9__gnu_cxx13new_allocatorIPKN3RPN4NodeEE10deallocateEPS4_j
__ZN9__gnu_cxx13new_allocatorIPKN3RPN4NodeEE7destroyIS4_EEvPT_
__ZN9__gnu_cxx13new_allocatorIPKN3RPN4NodeEE8allocateEjPKv
__ZN9__gnu_cxx13new_allocatorIPKN3RPN4NodeEE9constructIS4_JRKS4_EEEvPT_DpOT0_
__ZN9__gnu_cxx13new_allocatorIPKN3RPN4NodeEEC2Ev
__ZN9__gnu_cxx13new_allocatorIPKN3RPN4NodeEED2Ev
__ZN9__gnu_cxx13new_allocatorISt13_Rb_tree_nodeISt4pairIKNSt7__cxx1112basic_stringIcSt11char_traitsIcESaIcEEEPKN3RPN4NodeEEEE10deallocateEPSF_j
__ZN9__gnu_cxx13new_allocatorISt13_Rb_tree_nodeISt4pairIKNSt7__cxx1112basic_stringIcSt11char_traitsIcESaIcEEEPKN3RPN4NodeEEEE7destroyISE_EEvPT_
__ZN9__gnu_cxx13new_allocatorISt13_Rb_tree_nodeISt4pairIKNSt7__cxx1112basic_stringIcSt11char_traitsIcESaIcEEEPKN3RPN4NodeEEEE8allocateEjPKv
__ZN9__gnu_cxx13new_allocatorISt13_Rb_tree_nodeISt4pairIKNSt7__cxx1112basic_stringIcSt11char_traitsIcESaIcEEEPKN3RPN4NodeEEEE9constructISE_JRKSE_EEEvPT_DpOT0_
__ZN9__gnu_cxx13new_allocatorISt13_Rb_tree_nodeISt4pairIKNSt7__cxx1112basic_stringIcSt11char_traitsIcESaIcEEEPKN3RPN4NodeEEEE9constructISE_JRKSt21piecewise_construct_tSt5tupleIJRS9_EESL_IJEEEEEvPT_DpOT0_
__ZN9__gnu_cxx13new_allocatorISt13_Rb_tree_nodeISt4pairIKNSt7__cxx1112basic_stringIcSt11char_traitsIcESaIcEEEPKN3RPN4NodeEEEEC2ERKSG_
__ZN9__gnu_cxx13new_allocatorISt13_Rb_tree_nodeISt4pairIKNSt7__cxx1112basic_stringIcSt11char_traitsIcESaIcEEEPKN3RPN4NodeEEEEC2Ev
__ZN9__gnu_cxx13new_allocatorISt13_Rb_tree_nodeISt4pairIKNSt7__cxx1112basic_stringIcSt11char_traitsIcESaIcEEEPKN3RPN4NodeEEEED2Ev
__ZN9__gnu_cxx13new_allocatorIdE10deallocateEPdj
__ZN9__gnu_cxx13new_allocatorIdE7destroyIdEEvPT_
__ZN9__gnu_cxx13new_allocatorIdE8allocateEjPKv
__ZN9__gnu_cxx13new_allocatorIdE9constructIdJRKdEEEvPT_DpOT0_
__ZN9__gnu_cxx13new_allocatorIdEC2Ev
__ZN9__gnu_cxx13new_allocatorIdED2Ev
__ZN9__gnu_cxx13new_allocatorIiE10deallocateEPij
__ZN9__gnu_cxx13new_allocatorIiE7destroyIiEEvPT_
__ZN9__gnu_cxx13new_allocatorIiE8allocateEjPKv
__ZN9__gnu_cxx13new_allocatorIiE9constructIiJiEEEvPT_DpOT0_
__ZN9__gnu_cxx13new_allocatorIiEC2Ev
__ZN9__gnu_cxx13new_allocatorIiED2Ev
__ZN9__gnu_cxx14__alloc_traitsISaISt13_Rb_tree_nodeISt4pairIKNSt7__cxx1112basic_stringIcSt11char_traitsIcESaIcEEEPKN3RPN4NodeEEEEE17_S_select_on_copyERKSG_
__ZN9__gnu_cxx16__aligned_membufISt4pairIKNSt7__cxx1112basic_stringIcSt11char_traitsIcESaIcEEEPKN3RPN4NodeEEE6_M_ptrEv
__ZN9__gnu_cxx16__aligned_membufISt4pairIKNSt7__cxx1112basic_stringIcSt11char_traitsIcESaIcEEEPKN3RPN4NodeEEE7_M_addrEv
__ZN9__gnu_cxx16__aligned_membufISt4pairIKNSt7__cxx1112basic_stringIcSt11char_traitsIcESaIcEEEPKN3RPN4NodeEEEC1Ev
__ZN9__gnu_cxx17__normal_iteratorIPKPKN3RPN4NodeESt6vectorIS4_SaIS4_EEEC1ERKS6_
__ZN9__gnu_cxx17__normal_iteratorIPKPKN3RPN4NodeESt6vectorIS4_SaIS4_EEEC1IPS4_EERKNS0_IT_NS_11__enable_ifIXsrSt10__are_sameISD_SC_E7__valueES9_E6__typeEEE
__ZN9__gnu_cxx17__normal_iteratorIPKPKN3RPN4NodeESt6vectorIS4_SaIS4_EEEppEv
__ZN9__gnu_cxx17__normal_iteratorIPKcNSt7__cxx1112basic_stringIcSt11char_traitsIcESaIcEEEEC1Ev
__ZN9__gnu_cxx17__normal_iteratorIPKcNSt7__cxx1112basic_stringIcSt11char_traitsIcESaIcEEEEC1IPcEERKNS0_IT_NS_11__enable_ifIXsrSt10__are_sameISC_SB_E7__valueES8_E6__typeEEE
__ZN9__gnu_cxx17__normal_iteratorIPKcNSt7__cxx1112basic_stringIcSt11char_traitsIcESaIcEEEEppEv
__ZN9__gnu_cxx17__normal_iteratorIPN3RPN6Parser5TokenESt6vectorIS3_SaIS3_EEEC1ERKS4_
__ZN9__gnu_cxx17__normal_iteratorIPPKN3RPN4NodeESt6vectorIS4_SaIS4_EEEC1ERKS5_
__ZN9__gnu_cxx17__normal_iteratorIPdSt6vectorIdSaIdEEEC1ERKS1_
__ZN9__gnu_cxx17__normal_iteratorIPiSt6vectorIiSaIiEEEC1ERKS1_
__ZN9__gnu_cxxeqIPKcNSt7__cxx1112basic_stringIcSt11char_traitsIcESaIcEEEEEbRKNS_17__normal_iteratorIT_T0_EESE_
__ZN9__gnu_cxxneIPKPKN3RPN4NodeEPS4_St6vectorIS4_SaIS4_EEEEbRKNS_17__normal_iteratorIT_T1_EERKNSB_IT0_SD_EE
__ZN9__gnu_cxxneIPKPKN3RPN4NodeESt6vectorIS4_SaIS4_EEEEbRKNS_17__normal_iteratorIT_T0_EESF_
__ZN9__gnu_cxxneIPKcNSt7__cxx1112basic_stringIcSt11char_traitsIcESaIcEEEEEbRKNS_17__normal_iteratorIT_T0_EESE_
__ZNK3RPN10CosineNode8evaluateERNS_9EvaluatorE
__ZNK3RPN10Expression8evaluateERNS_9EvaluatorE
__ZNK3RPN10Expression8evaluateEd
__ZNK3RPN10Expression8evaluateEdd
__ZNK3RPN10Expression8evaluateEddd
__ZNK3RPN10Expression8evaluateEv
__ZNK3RPN10Expression9argumentsEv
__ZNK3RPN10ModuloNode8evaluateERNS_9EvaluatorE
__ZNK3RPN10SecantNode8evaluateERNS_9EvaluatorE
__ZNK3RPN11ArcSineNode8evaluateERNS_9EvaluatorE
__ZNK3RPN11BracketNode10isClosedByEPKS0_
__ZNK3RPN11BracketNode6closerEv
__ZNK3RPN11BracketNode6openerEv
__ZNK3RPN11InfixParser8hasStackEv
__ZNK3RPN11MaximumNode8evaluateERNS_9EvaluatorE
__ZNK3RPN11MinimumNode8evaluateERNS_9EvaluatorE
__ZNK3RPN11TangentNode8evaluateERNS_9EvaluatorE
__ZNK3RPN12AdditionNode8evaluateERNS_9EvaluatorE
__ZNK3RPN12ArgumentNode8evaluateERNS_9EvaluatorE
__ZNK3RPN12ConstantNode5flagsEv
__ZNK3RPN12ConstantNode8evaluateERNS_9EvaluatorE
__ZNK3RPN12CosecantNode8evaluateERNS_9EvaluatorE
__ZNK3RPN12DivisionNode8evaluateERNS_9EvaluatorE
__ZNK3RPN12FunctionNode10infixParseERNS_11InfixParserERNS_6Parser5TokenE
__ZNK3RPN12FunctionNode5flagsEv
__ZNK3RPN12FunctionNode9argumentsEv
__ZNK3RPN12NegationNode8evaluateERNS_9EvaluatorE
__ZNK3RPN12OperatorNode10infixParseERNS_11InfixParserERNS_6Parser5TokenE
__ZNK3RPN12OperatorNode10precedenceEv
__ZNK3RPN12OperatorNode17isLeftAssociativeEv
__ZNK3RPN12OperatorNode18isRightAssociativeEv
__ZNK3RPN12OperatorNode5flagsEv
__ZNK3RPN12OperatorNode9argumentsEv
__ZNK3RPN12VariableNode8evaluateERNS_9EvaluatorE
__ZNK3RPN13ArcCosineNode8evaluateERNS_9EvaluatorE
__ZNK3RPN13ArcSecantNode8evaluateERNS_9EvaluatorE
__ZNK3RPN13CotangentNode8evaluateERNS_9EvaluatorE
__ZNK3RPN13FactorialNode8evaluateERNS_9EvaluatorE
__ZNK3RPN13LogarithmNode8evaluateERNS_9EvaluatorE
__ZNK3RPN14ArcTangentNode8evaluateERNS_9EvaluatorE
__ZNK3RPN14ExpressionNode10infixParseERNS_11InfixParserERNS_6Parser5TokenE
__ZNK3RPN14ExpressionNode5flagsEv
__ZNK3RPN14ExpressionNode8evaluateERNS_9EvaluatorE
__ZNK3RPN14ExpressionNode9argumentsEv
__ZNK3RPN14SquareRootNode8evaluateERNS_9EvaluatorE
__ZNK3RPN15ArcCosecantNode8evaluateERNS_9EvaluatorE
__ZNK3RPN15ArcTangent2Node8evaluateERNS_9EvaluatorE
__ZNK3RPN15ExponentialNode8evaluateERNS_9EvaluatorE
__ZNK3RPN15LeftBracketNode10infixParseERNS_11InfixParserERNS_6Parser5TokenE
__ZNK3RPN15LeftBracketNode5flagsEv
__ZNK3RPN15SubtractionNode8evaluateERNS_9EvaluatorE
__ZNK3RPN16ArcCotangentNode8evaluateERNS_9EvaluatorE
__ZNK3RPN16RightBracketNode10infixParseERNS_11InfixParserERNS_6Parser5TokenE
__ZNK3RPN16RightBracketNode5flagsEv
__ZNK3RPN17AbsoluteValueNode8evaluateERNS_9EvaluatorE
__ZNK3RPN17ArcCotangent2Node8evaluateERNS_9EvaluatorE
__ZNK3RPN18ExponentiationNode8evaluateERNS_9EvaluatorE
__ZNK3RPN18HyperbolicSineNode8evaluateERNS_9EvaluatorE
__ZNK3RPN18MultiplicationNode8evaluateERNS_9EvaluatorE
__ZNK3RPN19BinaryLogarithmNode8evaluateERNS_9EvaluatorE
__ZNK3RPN20DecadicLogarithmNode8evaluateERNS_9EvaluatorE
__ZNK3RPN20HyperbolicCosineNode8evaluateERNS_9EvaluatorE
__ZNK3RPN20HyperbolicSecantNode8evaluateERNS_9EvaluatorE
__ZNK3RPN20NaturalLogarithmNode8evaluateERNS_9EvaluatorE
__ZNK3RPN21HyperbolicArcSineNode8evaluateERNS_9EvaluatorE
__ZNK3RPN21HyperbolicTangentNode8evaluateERNS_9EvaluatorE
__ZNK3RPN22HyperbolicCosecantNode8evaluateERNS_9EvaluatorE
__ZNK3RPN23HyperbolicArcCosineNode8evaluateERNS_9EvaluatorE
__ZNK3RPN23HyperbolicArcSecantNode8evaluateERNS_9EvaluatorE
__ZNK3RPN23HyperbolicCotangentNode8evaluateERNS_9EvaluatorE
__ZNK3RPN24HyperbolicArcTangentNode8evaluateERNS_9EvaluatorE
__ZNK3RPN25HyperbolicArcCosecantNode8evaluateERNS_9EvaluatorE
__ZNK3RPN26HyperbolicArcCotangentNode8evaluateERNS_9EvaluatorE
__ZNK3RPN4Node10isFunctionEv
__ZNK3RPN4Node10isOperatorEv
__ZNK3RPN4Node10isVolatileEv
__ZNK3RPN4Node11dereferenceEv
__ZNK3RPN4Node7isValueEv
__ZNK3RPN4Node8evaluateERNS_9EvaluatorE
__ZNK3RPN4Node8succeedsENS0_5FlagsE
__ZNK3RPN4Node9argumentsEv
__ZNK3RPN4Node9isBracketEv
__ZNK3RPN4Node9referenceEv
__ZNK3RPN7Context6lookupERKNSt7__cxx1112basic_stringIcSt11char_traitsIcESaIcEEE
__ZNK3RPN8RootNode8evaluateERNS_9EvaluatorE
__ZNK3RPN8SineNode8evaluateERNS_9EvaluatorE
__ZNK3RPN9CommaNode10infixParseERNS_11InfixParserERNS_6Parser5TokenE
__ZNK3RPN9CommaNode5flagsEv
__ZNK3RPN9Evaluator5countEv
__ZNK3RPN9PowerNode8evaluateERNS_9EvaluatorE
__ZNK3RPN9ValueNode10infixParseERNS_11InfixParserERNS_6Parser5TokenE
__ZNK3RPN9ValueNode5flagsEv
__ZNK3RPN9ValueNode9argumentsEv
__ZNK9__gnu_cxx13new_allocatorIN3RPN6Parser5TokenEE8max_sizeEv
__ZNK9__gnu_cxx13new_allocatorIPKN3RPN4NodeEE8max_sizeEv
__ZNK9__gnu_cxx13new_allocatorISt13_Rb_tree_nodeISt4pairIKNSt7__cxx1112basic_stringIcSt11char_traitsIcESaIcEEEPKN3RPN4NodeEEEE8max_sizeEv
__ZNK9__gnu_cxx13new_allocatorIdE8max_sizeEv
__ZNK9__gnu_cxx13new_allocatorIiE8max_sizeEv
__ZNK9__gnu_cxx16__aligned_membufISt4pairIKNSt7__cxx1112basic_stringIcSt11char_traitsIcESaIcEEEPKN3RPN4NodeEEE6_M_ptrEv
__ZNK9__gnu_cxx16__aligned_membufISt4pairIKNSt7__cxx1112basic_stringIcSt11char_traitsIcESaIcEEEPKN3RPN4NodeEEE7_M_addrEv
__ZNK9__gnu_cxx17__normal_iteratorIPKPKN3RPN4NodeESt6vectorIS4_SaIS4_EEE4baseEv
__ZNK9__gnu_cxx17__normal_iteratorIPKPKN3RPN4NodeESt6vectorIS4_SaIS4_EEEdeEv
__ZNK9__gnu_cxx17__normal_iteratorIPKcNSt7__cxx1112basic_stringIcSt11char_traitsIcESaIcEEEE4baseEv
__ZNK9__gnu_cxx17__normal_iteratorIPKcNSt7__cxx1112basic_stringIcSt11char_traitsIcESaIcEEEEdeEv
__ZNK9__gnu_cxx17__normal_iteratorIPN3RPN6Parser5TokenESt6vectorIS3_SaIS3_EEEdeEv
__ZNK9__gnu_cxx17__normal_iteratorIPN3RPN6Parser5TokenESt6vectorIS3_SaIS3_EEEmiEi
__ZNK9__gnu_cxx17__normal_iteratorIPPKN3RPN4NodeESt6vectorIS4_SaIS4_EEE4baseEv
__ZNK9__gnu_cxx17__normal_iteratorIPcNSt7__cxx1112basic_stringIcSt11char_traitsIcESaIcEEEE4baseEv
__ZNK9__gnu_cxx17__normal_iteratorIPdSt6vectorIdSaIdEEEdeEv
__ZNK9__gnu_cxx17__normal_iteratorIPdSt6vectorIdSaIdEEEmiEi
__ZNK9__gnu_cxx17__normal_iteratorIPiSt6vectorIiSaIiEEEdeEv
__ZNK9__gnu_cxx17__normal_iteratorIPiSt6vectorIiSaIiEEEmiEi
__ZNKSt10_Select1stISt4pairIKNSt7__cxx1112basic_stringIcSt11char_traitsIcESaIcEEEPKN3RPN4NodeEEEclERKSC_
__ZNKSt12_Vector_baseIN3RPN6Parser5TokenESaIS2_EE19_M_get_Tp_allocatorEv
__ZNKSt12_Vector_baseIPKN3RPN4NodeESaIS3_EE19_M_get_Tp_allocatorEv
__ZNKSt12_Vector_baseIdSaIdEE19_M_get_Tp_allocatorEv
__ZNKSt12_Vector_baseIiSaIiEE19_M_get_Tp_allocatorEv
__ZNKSt13_Rb_tree_nodeISt4pairIKNSt7__cxx1112basic_stringIcSt11char_traitsIcESaIcEEEPKN3RPN4NodeEEE9_M_valptrEv
__ZNKSt13move_iteratorIPPKN3RPN4NodeEE4baseEv
__ZNKSt13move_iteratorIPdE4baseEv
__ZNKSt13move_iteratorIPiE4baseEv
__ZNKSt17_Rb_tree_iteratorISt4pairIKNSt7__cxx1112basic_stringIcSt11char_traitsIcESaIcEEEPKN3RPN4NodeEEEdeEv
__ZNKSt17_Rb_tree_iteratorISt4pairIKNSt7__cxx1112basic_stringIcSt11char_traitsIcESaIcEEEPKN3RPN4NodeEEEeqERKSD_
__ZNKSt17_Rb_tree_iteratorISt4pairIKNSt7__cxx1112basic_stringIcSt11char_traitsIcESaIcEEEPKN3RPN4NodeEEEneERKSD_
__ZNKSt23_Rb_tree_const_iteratorISt4pairIKNSt7__cxx1112basic_stringIcSt11char_traitsIcESaIcEEEPKN3RPN4NodeEEE13_M_const_castEv
__ZNKSt23_Rb_tree_const_iteratorISt4pairIKNSt7__cxx1112basic_stringIcSt11char_traitsIcESaIcEEEPKN3RPN4NodeEEEdeEv
__ZNKSt23_Rb_tree_const_iteratorISt4pairIKNSt7__cxx1112basic_stringIcSt11char_traitsIcESaIcEEEPKN3RPN4NodeEEEeqERKSD_
__ZNKSt23_Rb_tree_const_iteratorISt4pairIKNSt7__cxx1112basic_stringIcSt11char_traitsIcESaIcEEEPKN3RPN4NodeEEEneERKSD_
__ZNKSt3mapIKNSt7__cxx1112basic_stringIcSt11char_traitsIcESaIcEEEPKN3RPN4NodeESt4lessIS6_ESaISt4pairIS6_SA_EEE3endEv
__ZNKSt3mapIKNSt7__cxx1112basic_stringIcSt11char_traitsIcESaIcEEEPKN3RPN4NodeESt4lessIS6_ESaISt4pairIS6_SA_EEE4findERS6_
__ZNKSt3mapIKNSt7__cxx1112basic_stringIcSt11char_traitsIcESaIcEEEPKN3RPN4NodeESt4lessIS6_ESaISt4pairIS6_SA_EEE8key_compEv
__ZNKSt4lessIKNSt7__cxx1112basic_stringIcSt11char_traitsIcESaIcEEEEclERS6_S8_
__ZNKSt6vectorIN3RPN6Parser5TokenESaIS2_EE12_M_check_lenEjPKc
__ZNKSt6vectorIN3RPN6Parser5TokenESaIS2_EE4sizeEv
__ZNKSt6vectorIN3RPN6Parser5TokenESaIS2_EE8max_sizeEv
__ZNKSt6vectorIPKN3RPN4NodeESaIS3_EE12_M_check_lenEjPKc
__ZNKSt6vectorIPKN3RPN4NodeESaIS3_EE3endEv
__ZNKSt6vectorIPKN3RPN4NodeESaIS3_EE4sizeEv
__ZNKSt6vectorIPKN3RPN4NodeESaIS3_EE5beginEv
__ZNKSt6vectorIPKN3RPN4NodeESaIS3_EE8max_sizeEv
__ZNKSt6vectorIdSaIdEE12_M_check_lenEjPKc
__ZNKSt6vectorIdSaIdEE4sizeEv
__ZNKSt6vectorIdSaIdEE8capacityEv
__ZNKSt6vectorIdSaIdEE8max_sizeEv
__ZNKSt6vectorIiSaIiEE12_M_check_lenEjPKc
__ZNKSt6vectorIiSaIiEE4sizeEv
__ZNKSt6vectorIiSaIiEE8max_sizeEv
__ZNKSt8_Rb_treeIKNSt7__cxx1112basic_stringIcSt11char_traitsIcESaIcEEESt4pairIS6_PKN3RPN4NodeEESt10_Select1stISC_ESt4lessIS6_ESaISC_EE11_Alloc_nodeclIRKSC_EEPSt13_Rb_tree_nodeISC_EOT_
__ZNKSt8_Rb_treeIKNSt7__cxx1112basic_stringIcSt11char_traitsIcESaIcEEESt4pairIS6_PKN3RPN4NodeEESt10_Select1stISC_ESt4lessIS6_ESaISC_EE14_M_lower_boundEPKSt13_Rb_tree_nodeISC_ESM_RS6_
__ZNKSt8_Rb_treeIKNSt7__cxx1112basic_stringIcSt11char_traitsIcESaIcEEESt4pairIS6_PKN3RPN4NodeEESt10_Select1stISC_ESt4lessIS6_ESaISC_EE21_M_get_Node_allocatorEv
__ZNKSt8_Rb_treeIKNSt7__cxx1112basic_stringIcSt11char_traitsIcESaIcEEESt4pairIS6_PKN3RPN4NodeEESt10_Select1stISC_ESt4lessIS6_ESaISC_EE3endEv
__ZNKSt8_Rb_treeIKNSt7__cxx1112basic_stringIcSt11char_traitsIcESaIcEEESt4pairIS6_PKN3RPN4NodeEESt10_Select1stISC_ESt4lessIS6_ESaISC_EE4findERS6_
__ZNKSt8_Rb_treeIKNSt7__cxx1112basic_stringIcSt11char_traitsIcESaIcEEESt4pairIS6_PKN3RPN4NodeEESt10_Select1stISC_ESt4lessIS6_ESaISC_EE4sizeEv
__ZNKSt8_Rb_treeIKNSt7__cxx1112basic_stringIcSt11char_traitsIcESaIcEEESt4pairIS6_PKN3RPN4NodeEESt10_Select1stISC_ESt4lessIS6_ESaISC_EE6_M_endEv
__ZNKSt8_Rb_treeIKNSt7__cxx1112basic_stringIcSt11char_traitsIcESaIcEEESt4pairIS6_PKN3RPN4NodeEESt10_Select1stISC_ESt4lessIS6_ESaISC_EE7_M_rootEv
__ZNKSt8_Rb_treeIKNSt7__cxx1112basic_stringIcSt11char_traitsIcESaIcEEESt4pairIS6_PKN3RPN4NodeEESt10_Select1stISC_ESt4lessIS6_ESaISC_EE8_M_beginEv
__ZNKSt8_Rb_treeIKNSt7__cxx1112basic_stringIcSt11char_traitsIcESaIcEEESt4pairIS6_PKN3RPN4NodeEESt10_Select1stISC_ESt4lessIS6_ESaISC_EE8key_compEv
__ZNSaIN3RPN6Parser5TokenEEC2Ev
__ZNSaIN3RPN6Parser5TokenEED2Ev
__ZNSaIPKN3RPN4NodeEEC2Ev
__ZNSaIPKN3RPN4NodeEED2Ev
__ZNSaISt13_Rb_tree_nodeISt4pairIKNSt7__cxx1112basic_stringIcSt11char_traitsIcESaIcEEEPKN3RPN4NodeEEEEC1ERKSE_
__ZNSaISt13_Rb_tree_nodeISt4pairIKNSt7__cxx1112basic_stringIcSt11char_traitsIcESaIcEEEPKN3RPN4NodeEEEEC2ERKSE_
__ZNSaISt13_Rb_tree_nodeISt4pairIKNSt7__cxx1112basic_stringIcSt11char_traitsIcESaIcEEEPKN3RPN4NodeEEEEC2Ev
__ZNSaISt13_Rb_tree_nodeISt4pairIKNSt7__cxx1112basic_stringIcSt11char_traitsIcESaIcEEEPKN3RPN4NodeEEEED1Ev
__ZNSaISt13_Rb_tree_nodeISt4pairIKNSt7__cxx1112basic_stringIcSt11char_traitsIcESaIcEEEPKN3RPN4NodeEEEED2Ev
__ZNSaIdEC2Ev
__ZNSaIdED2Ev
__ZNSaIiEC2Ev
__ZNSaIiED2Ev
__ZNSt10_Head_baseILj0ERKNSt7__cxx1112basic_stringIcSt11char_traitsIcESaIcEEELb0EE7_M_headERS8_
__ZNSt10_Head_baseILj0ERKNSt7__cxx1112basic_stringIcSt11char_traitsIcESaIcEEELb0EEC2ES7_
__ZNSt10_Iter_baseIPPKN3RPN4NodeELb0EE7_S_baseES4_
__ZNSt10_Iter_baseIPdLb0EE7_S_baseES0_
__ZNSt10_Iter_baseIPiLb0EE7_S_baseES0_
__ZNSt10_Iter_baseISt13move_iteratorIPPKN3RPN4NodeEELb1EE7_S_baseES6_
__ZNSt10_Iter_baseISt13move_iteratorIPdELb1EE7_S_baseES2_
__ZNSt10_Iter_baseISt13move_iteratorIPiELb1EE7_S_baseES2_
__ZNSt11_Tuple_implILj0EJRKNSt7__cxx1112basic_stringIcSt11char_traitsIcESaIcEEEEE7_M_headERS8_
__ZNSt11_Tuple_implILj0EJRKNSt7__cxx1112basic_stringIcSt11char_traitsIcESaIcEEEEEC2EOS8_
__ZNSt11_Tuple_implILj0EJRKNSt7__cxx1112basic_stringIcSt11char_traitsIcESaIcEEEEEC2ES7_
__ZNSt11__copy_moveILb1ELb1ESt26random_access_iterator_tagE8__copy_mIPKN3RPN4NodeEEEPT_PKS7_SA_S8_
__ZNSt11__copy_moveILb1ELb1ESt26random_access_iterator_tagE8__copy_mIdEEPT_PKS3_S6_S4_
__ZNSt11__copy_moveILb1ELb1ESt26random_access_iterator_tagE8__copy_mIiEEPT_PKS3_S6_S4_
__ZNSt12_Destroy_auxILb0EE9__destroyIPN3RPN6Parser5TokenEEEvT_S6_
__ZNSt12_Destroy_auxILb1EE9__destroyIPPKN3RPN4NodeEEEvT_S7_
__ZNSt12_Destroy_auxILb1EE9__destroyIPdEEvT_S3_
__ZNSt12_Destroy_auxILb1EE9__destroyIPiEEvT_S3_
__ZNSt12_Vector_baseIN3RPN6Parser5TokenESaIS2_EE11_M_allocateEj
__ZNSt12_Vector_baseIN3RPN6Parser5TokenESaIS2_EE12_Vector_implC1Ev
__ZNSt12_Vector_baseIN3RPN6Parser5TokenESaIS2_EE12_Vector_implD1Ev
__ZNSt12_Vector_baseIN3RPN6Parser5TokenESaIS2_EE13_M_deallocateEPS2_j
__ZNSt12_Vector_baseIN3RPN6Parser5TokenESaIS2_EE19_M_get_Tp_allocatorEv
__ZNSt12_Vector_baseIN3RPN6Parser5TokenESaIS2_EEC2Ev
__ZNSt12_Vector_baseIN3RPN6Parser5TokenESaIS2_EED2Ev
__ZNSt12_Vector_baseIPKN3RPN4NodeESaIS3_EE11_M_allocateEj
__ZNSt12_Vector_baseIPKN3RPN4NodeESaIS3_EE12_Vector_implC1Ev
__ZNSt12_Vector_baseIPKN3RPN4NodeESaIS3_EE12_Vector_implD1Ev
__ZNSt12_Vector_baseIPKN3RPN4NodeESaIS3_EE13_M_deallocateEPS3_j
__ZNSt12_Vector_baseIPKN3RPN4NodeESaIS3_EE19_M_get_Tp_allocatorEv
__ZNSt12_Vector_baseIPKN3RPN4NodeESaIS3_EEC2Ev
__ZNSt12_Vector_baseIPKN3RPN4NodeESaIS3_EED2Ev
__ZNSt12_Vector_baseIdSaIdEE11_M_allocateEj
__ZNSt12_Vector_baseIdSaIdEE12_Vector_implC1Ev
__ZNSt12_Vector_baseIdSaIdEE12_Vector_implD1Ev
__ZNSt12_Vector_baseIdSaIdEE13_M_deallocateEPdj
__ZNSt12_Vector_baseIdSaIdEE19_M_get_Tp_allocatorEv
__ZNSt12_Vector_baseIdSaIdEEC2Ev
__ZNSt12_Vector_baseIdSaIdEED2Ev
__ZNSt12_Vector_baseIiSaIiEE11_M_allocateEj
__ZNSt12_Vector_baseIiSaIiEE12_Vector_implC1Ev
__ZNSt12_Vector_baseIiSaIiEE12_Vector_implD1Ev
__ZNSt12_Vector_baseIiSaIiEE13_M_deallocateEPij
__ZNSt12_Vector_baseIiSaIiEE19_M_get_Tp_allocatorEv
__ZNSt12_Vector_baseIiSaIiEEC2Ev
__ZNSt12_Vector_baseIiSaIiEED2Ev
__ZNSt13_Rb_tree_nodeISt4pairIKNSt7__cxx1112basic_stringIcSt11char_traitsIcESaIcEEEPKN3RPN4NodeEEE9_M_valptrEv
__ZNSt13_Rb_tree_nodeISt4pairIKNSt7__cxx1112basic_stringIcSt11char_traitsIcESaIcEEEPKN3RPN4NodeEEEC1Ev
__ZNSt13move_iteratorIPPKN3RPN4NodeEEC1ES4_
__ZNSt13move_iteratorIPdEC1ES0_
__ZNSt13move_iteratorIPiEC1ES0_
__ZNSt16allocator_traitsISaIN3RPN6Parser5TokenEEE10_S_destroyIS2_EENSt9enable_ifIXsrSt6__and_IJNS4_16__destroy_helperIT_E4typeEEE5valueEvE4typeERS3_PS9_
__ZNSt16allocator_traitsISaIN3RPN6Parser5TokenEEE10deallocateERS3_PS2_j
__ZNSt16allocator_traitsISaIN3RPN6Parser5TokenEEE11_S_max_sizeIKS3_vEEjRT_i
__ZNSt16allocator_traitsISaIN3RPN6Parser5TokenEEE12_S_constructIS2_JRKS2_EEENSt9enable_ifIXsrSt6__and_IJNS4_18__construct_helperIT_JDpT0_EE4typeEEE5valueEvE4typeERS3_PSB_DpOSC_
__ZNSt16allocator_traitsISaIN3RPN6Parser5TokenEEE7destroyIS2_EEvRS3_PT_
__ZNSt16allocator_traitsISaIN3RPN6Parser5TokenEEE8allocateERS3_j
__ZNSt16allocator_traitsISaIN3RPN6Parser5TokenEEE8max_sizeERKS3_
__ZNSt16allocator_traitsISaIN3RPN6Parser5TokenEEE9constructIS2_JRKS2_EEEDTcl12_S_constructfp_fp0_spcl7forwardIT0_Efp1_EEERS3_PT_DpOS8_
__ZNSt16allocator_traitsISaIPKN3RPN4NodeEEE10_S_destroyIS3_EENSt9enable_ifIXsrSt6__and_IJNS5_16__destroy_helperIT_E4typeEEE5valueEvE4typeERS4_PSA_
__ZNSt16allocator_traitsISaIPKN3RPN4NodeEEE10deallocateERS4_PS3_j
__ZNSt16allocator_traitsISaIPKN3RPN4NodeEEE11_S_max_sizeIKS4_vEEjRT_i
__ZNSt16allocator_traitsISaIPKN3RPN4NodeEEE12_S_constructIS3_JRKS3_EEENSt9enable_ifIXsrSt6__and_IJNS5_18__construct_helperIT_JDpT0_EE4typeEEE5valueEvE4typeERS4_PSC_DpOSD_
__ZNSt16allocator_traitsISaIPKN3RPN4NodeEEE7destroyIS3_EEvRS4_PT_
__ZNSt16allocator_traitsISaIPKN3RPN4NodeEEE8allocateERS4_j
__ZNSt16allocator_traitsISaIPKN3RPN4NodeEEE8max_sizeERKS4_
__ZNSt16allocator_traitsISaIPKN3RPN4NodeEEE9constructIS3_JRKS3_EEEDTcl12_S_constructfp_fp0_spcl7forwardIT0_Efp1_EEERS4_PT_DpOS9_
__ZNSt16allocator_traitsISaISt13_Rb_tree_nodeISt4pairIKNSt7__cxx1112basic_stringIcSt11char_traitsIcESaIcEEEPKN3RPN4NodeEEEEE10_S_destroyISD_EENSt9enable_ifIXsrSt6__and_IJNSG_16__destroy_helperIT_E4typeEEE5valueEvE4typeERSF_PSL_
__ZNSt16allocator_traitsISaISt13_Rb_tree_nodeISt4pairIKNSt7__cxx1112basic_stringIcSt11char_traitsIcESaIcEEEPKN3RPN4NodeEEEEE10deallocateERSF_PSE_j
__ZNSt16allocator_traitsISaISt13_Rb_tree_nodeISt4pairIKNSt7__cxx1112basic_stringIcSt11char_traitsIcESaIcEEEPKN3RPN4NodeEEEEE12_S_constructISD_JRKSD_EEENSt9enable_ifIXsrSt6__and_IJNSG_18__construct_helperIT_JDpT0_EE4typeEEE5valueEvE4typeERSF_PSN_DpOSO_
__ZNSt16allocator_traitsISaISt13_Rb_tree_nodeISt4pairIKNSt7__cxx1112basic_stringIcSt11char_traitsIcESaIcEEEPKN3RPN4NodeEEEEE12_S_constructISD_JRKSt21piecewise_construct_tSt5tupleIJRS8_EESL_IJEEEEENSt9enable_ifIXsrSt6__and_IJNSG_18__construct_helperIT_JDpT0_EE4typeEEE5valueEvE4typeERSF_PSS_DpOST_
__ZNSt16allocator_traitsISaISt13_Rb_tree_nodeISt4pairIKNSt7__cxx1112basic_stringIcSt11char_traitsIcESaIcEEEPKN3RPN4NodeEEEEE37select_on_container_copy_constructionERKSF_
__ZNSt16allocator_traitsISaISt13_Rb_tree_nodeISt4pairIKNSt7__cxx1112basic_stringIcSt11char_traitsIcESaIcEEEPKN3RPN4NodeEEEEE7destroyISD_EEvRSF_PT_
__ZNSt16allocator_traitsISaISt13_Rb_tree_nodeISt4pairIKNSt7__cxx1112basic_stringIcSt11char_traitsIcESaIcEEEPKN3RPN4NodeEEEEE8allocateERSF_j
__ZNSt16allocator_traitsISaISt13_Rb_tree_nodeISt4pairIKNSt7__cxx1112basic_stringIcSt11char_traitsIcESaIcEEEPKN3RPN4NodeEEEEE9_S_selectIKSF_vEET_RSJ_z
__ZNSt16allocator_traitsISaISt13_Rb_tree_nodeISt4pairIKNSt7__cxx1112basic_stringIcSt11char_traitsIcESaIcEEEPKN3RPN4NodeEEEEE9constructISD_JRKSD_EEEDTcl12_S_constructfp_fp0_spcl7forwardIT0_Efp1_EEERSF_PT_DpOSK_
__ZNSt16allocator_traitsISaISt13_Rb_tree_nodeISt4pairIKNSt7__cxx1112basic_stringIcSt11char_traitsIcESaIcEEEPKN3RPN4NodeEEEEE9constructISD_JRKSt21piecewise_construct_tSt5tupleIJRS8_EESL_IJEEEEEDTcl12_S_constructfp_fp0_spcl7forwardIT0_Efp1_EEERSF_PT_DpOSP_
__ZNSt16allocator_traitsISaIdEE10_S_destroyIdEENSt9enable_ifIXsrSt6__and_IJNS1_16__destroy_helperIT_E4typeEEE5valueEvE4typeERS0_PS6_
__ZNSt16allocator_traitsISaIdEE10deallocateERS0_Pdj
__ZNSt16allocator_traitsISaIdEE11_S_max_sizeIKS0_vEEjRT_i
__ZNSt16allocator_traitsISaIdEE12_S_constructIdJRKdEEENSt9enable_ifIXsrSt6__and_IJNS1_18__construct_helperIT_JDpT0_EE4typeEEE5valueEvE4typeERS0_PS8_DpOS9_
__ZNSt16allocator_traitsISaIdEE7destroyIdEEvRS0_PT_
__ZNSt16allocator_traitsISaIdEE8allocateERS0_j
__ZNSt16allocator_traitsISaIdEE8max_sizeERKS0_
__ZNSt16allocator_traitsISaIdEE9constructIdJRKdEEEDTcl12_S_constructfp_fp0_spcl7forwardIT0_Efp1_EEERS0_PT_DpOS5_
__ZNSt16allocator_traitsISaIiEE10_S_destroyIiEENSt9enable_ifIXsrSt6__and_IJNS1_16__destroy_helperIT_E4typeEEE5valueEvE4typeERS0_PS6_
__ZNSt16allocator_traitsISaIiEE10deallocateERS0_Pij
__ZNSt16allocator_traitsISaIiEE11_S_max_sizeIKS0_vEEjRT_i
__ZNSt16allocator_traitsISaIiEE12_S_constructIiJiEEENSt9enable_ifIXsrSt6__and_IJNS1_18__construct_helperIT_JDpT0_EE4typeEEE5valueEvE4typeERS0_PS6_DpOS7_
__ZNSt16allocator_traitsISaIiEE7destroyIiEEvRS0_PT_
__ZNSt16allocator_traitsISaIiEE8allocateERS0_j
__ZNSt16allocator_traitsISaIiEE8max_sizeERKS0_
__ZNSt16allocator_traitsISaIiEE9constructIiJiEEEDTcl12_S_constructfp_fp0_spcl7forwardIT0_Efp1_EEERS0_PT_DpOS3_
__ZNSt17_Rb_tree_iteratorISt4pairIKNSt7__cxx1112basic_stringIcSt11char_traitsIcESaIcEEEPKN3RPN4NodeEEEC1EPSt18_Rb_tree_node_base
__ZNSt17_Rb_tree_iteratorISt4pairIKNSt7__cxx1112basic_stringIcSt11char_traitsIcESaIcEEEPKN3RPN4NodeEEEmmEv
__ZNSt17_Rb_tree_iteratorISt4pairIKNSt7__cxx1112basic_stringIcSt11char_traitsIcESaIcEEEPKN3RPN4NodeEEEppEv
__ZNSt18_Rb_tree_node_base10_S_maximumEPS_
__ZNSt18_Rb_tree_node_base10_S_minimumEPS_
__ZNSt18_Rb_tree_node_baseC2Ev
__ZNSt20__uninitialized_copyILb0EE13__uninit_copyIPN3RPN6Parser5TokenES5_EET0_T_S7_S6_
__ZNSt20__uninitialized_copyILb1EE13__uninit_copyISt13move_iteratorIPPKN3RPN4NodeEES7_EET0_T_SA_S9_
__ZNSt20__uninitialized_copyILb1EE13__uninit_copyISt13move_iteratorIPdES3_EET0_T_S6_S5_
__ZNSt20__uninitialized_copyILb1EE13__uninit_copyISt13move_iteratorIPiES3_EET0_T_S6_S5_
__ZNSt23_Rb_tree_const_iteratorISt4pairIKNSt7__cxx1112basic_stringIcSt11char_traitsIcESaIcEEEPKN3RPN4NodeEEEC1EPKSt18_Rb_tree_node_base
__ZNSt23_Rb_tree_const_iteratorISt4pairIKNSt7__cxx1112basic_stringIcSt11char_traitsIcESaIcEEEPKN3RPN4NodeEEEC1ERKSt17_Rb_tree_iteratorISC_E
__ZNSt23_Rb_tree_const_iteratorISt4pairIKNSt7__cxx1112basic_stringIcSt11char_traitsIcESaIcEEEPKN3RPN4NodeEEEppEv
__ZNSt3mapIKNSt7__cxx1112basic_stringIcSt11char_traitsIcESaIcEEEPKN3RPN4NodeESt4lessIS6_ESaISt4pairIS6_SA_EEE11lower_boundERS6_
__ZNSt3mapIKNSt7__cxx1112basic_stringIcSt11char_traitsIcESaIcEEEPKN3RPN4NodeESt4lessIS6_ESaISt4pairIS6_SA_EEE3endEv
__ZNSt3mapIKNSt7__cxx1112basic_stringIcSt11char_traitsIcESaIcEEEPKN3RPN4NodeESt4lessIS6_ESaISt4pairIS6_SA_EEE4findERS6_
__ZNSt3mapIKNSt7__cxx1112basic_stringIcSt11char_traitsIcESaIcEEEPKN3RPN4NodeESt4lessIS6_ESaISt4pairIS6_SA_EEE5beginEv
__ZNSt3mapIKNSt7__cxx1112basic_stringIcSt11char_traitsIcESaIcEEEPKN3RPN4NodeESt4lessIS6_ESaISt4pairIS6_SA_EEE5eraseB5cxx11ESt17_Rb_tree_iteratorISE_E
__ZNSt3mapIKNSt7__cxx1112basic_stringIcSt11char_traitsIcESaIcEEEPKN3RPN4NodeESt4lessIS6_ESaISt4pairIS6_SA_EEEC1ERKSG_
__ZNSt3mapIKNSt7__cxx1112basic_stringIcSt11char_traitsIcESaIcEEEPKN3RPN4NodeESt4lessIS6_ESaISt4pairIS6_SA_EEEC1Ev
__ZNSt3mapIKNSt7__cxx1112basic_stringIcSt11char_traitsIcESaIcEEEPKN3RPN4NodeESt4lessIS6_ESaISt4pairIS6_SA_EEED1Ev
__ZNSt3mapIKNSt7__cxx1112basic_stringIcSt11char_traitsIcESaIcEEEPKN3RPN4NodeESt4lessIS6_ESaISt4pairIS6_SA_EEEixERS6_
__ZNSt4pairIKNSt7__cxx1112basic_stringIcSt11char_traitsIcESaIcEEEPKN3RPN4NodeEEC1ERKSB_
__ZNSt4pairIKNSt7__cxx1112basic_stringIcSt11char_traitsIcESaIcEEEPKN3RPN4NodeEEC1IJRS6_EJEEESt21piecewise_construct_tSt5tupleIJDpT_EESF_IJDpT0_EE
__ZNSt4pairIKNSt7__cxx1112basic_stringIcSt11char_traitsIcESaIcEEEPKN3RPN4NodeEEC1IJRS6_EJLj0EEJEJEEERSt5tupleIJDpT_EERSE_IJDpT1_EESt12_Index_tupleIJXspT0_EEESN_IJXspT2_EEE
__ZNSt4pairIKNSt7__cxx1112basic_stringIcSt11char_traitsIcESaIcEEEPKN3RPN4NodeEED1Ev
__ZNSt4pairIPSt18_Rb_tree_node_baseS1_EC1IRPSt13_Rb_tree_nodeIS_IKNSt7__cxx1112basic_stringIcSt11char_traitsIcESaIcEEEPKN3RPN4NodeEEESJ_vEEOT_OT0_
__ZNSt4pairIPSt18_Rb_tree_node_baseS1_EC1IRS1_S4_vEEOT_OT0_
__ZNSt4pairIPSt18_Rb_tree_node_baseS1_EC1IRS1_vEEOT_RKS1_
__ZNSt4pairIPSt18_Rb_tree_node_baseS1_EC1IRS1_vEERKS1_OT_
__ZNSt5tupleIJRKNSt7__cxx1112basic_stringIcSt11char_traitsIcESaIcEEEEEC1EOS8_
__ZNSt5tupleIJRKNSt7__cxx1112basic_stringIcSt11char_traitsIcESaIcEEEEEC1ES7_
__ZNSt6vectorIN3RPN6Parser5TokenESaIS2_EE15_M_erase_at_endEPS2_
__ZNSt6vectorIN3RPN6Parser5TokenESaIS2_EE19_M_emplace_back_auxIJRKS2_EEEvDpOT_
__ZNSt6vectorIN3RPN6Parser5TokenESaIS2_EE3endEv
__ZNSt6vectorIN3RPN6Parser5TokenESaIS2_EE4backEv
__ZNSt6vectorIN3RPN6Parser5TokenESaIS2_EE5clearEv
__ZNSt6vectorIN3RPN6Parser5TokenESaIS2_EE8pop_backEv
__ZNSt6vectorIN3RPN6Parser5TokenESaIS2_EE9push_backERKS2_
__ZNSt6vectorIN3RPN6Parser5TokenESaIS2_EEC1Ev
__ZNSt6vectorIN3RPN6Parser5TokenESaIS2_EED1Ev
__ZNSt6vectorIPKN3RPN4NodeESaIS3_EE15_M_erase_at_endEPS3_
__ZNSt6vectorIPKN3RPN4NodeESaIS3_EE19_M_emplace_back_auxIJRKS3_EEEvDpOT_
__ZNSt6vectorIPKN3RPN4NodeESaIS3_EE3endEv
__ZNSt6vectorIPKN3RPN4NodeESaIS3_EE5beginEv
__ZNSt6vectorIPKN3RPN4NodeESaIS3_EE5clearEv
__ZNSt6vectorIPKN3RPN4NodeESaIS3_EE9push_backERKS3_
__ZNSt6vectorIPKN3RPN4NodeESaIS3_EEC1Ev
__ZNSt6vectorIPKN3RPN4NodeESaIS3_EED1Ev
__ZNSt6vectorIdSaIdEE19_M_emplace_back_auxIJRKdEEEvDpOT_
__ZNSt6vectorIdSaIdEE20_M_allocate_and_copyISt13move_iteratorIPdEEES4_jT_S6_
__ZNSt6vectorIdSaIdEE3endEv
__ZNSt6vectorIdSaIdEE4backEv
__ZNSt6vectorIdSaIdEE7reserveEj
__ZNSt6vectorIdSaIdEE8pop_backEv
__ZNSt6vectorIdSaIdEE9push_backERKd
__ZNSt6vectorIdSaIdEEC1Ev
__ZNSt6vectorIdSaIdEED1Ev
__ZNSt6vectorIdSaIdEEixEj
__ZNSt6vectorIiSaIiEE12emplace_backIJiEEEvDpOT_
__ZNSt6vectorIiSaIiEE19_M_emplace_back_auxIJiEEEvDpOT_
__ZNSt6vectorIiSaIiEE3endEv
__ZNSt6vectorIiSaIiEE4backEv
__ZNSt6vectorIiSaIiEE8pop_backEv
__ZNSt6vectorIiSaIiEE9push_backEOi
__ZNSt6vectorIiSaIiEEC1Ev
__ZNSt6vectorIiSaIiEED1Ev
__ZNSt8_Rb_treeIKNSt7__cxx1112basic_stringIcSt11char_traitsIcESaIcEEESt4pairIS6_PKN3RPN4NodeEESt10_Select1stISC_ESt4lessIS6_ESaISC_EE10_S_maximumEPSt18_Rb_tree_node_base
__ZNSt8_Rb_treeIKNSt7__cxx1112basic_stringIcSt11char_traitsIcESaIcEEESt4pairIS6_PKN3RPN4NodeEESt10_Select1stISC_ESt4lessIS6_ESaISC_EE10_S_minimumEPSt18_Rb_tree_node_base
__ZNSt8_Rb_treeIKNSt7__cxx1112basic_stringIcSt11char_traitsIcESaIcEEESt4pairIS6_PKN3RPN4NodeEESt10_Select1stISC_ESt4lessIS6_ESaISC_EE11_Alloc_nodeC1ERSI_
__ZNSt8_Rb_treeIKNSt7__cxx1112basic_stringIcSt11char_traitsIcESaIcEEESt4pairIS6_PKN3RPN4NodeEESt10_Select1stISC_ESt4lessIS6_ESaISC_EE11_M_get_nodeEv
__ZNSt8_Rb_treeIKNSt7__cxx1112basic_stringIcSt11char_traitsIcESaIcEEESt4pairIS6_PKN3RPN4NodeEESt10_Select1stISC_ESt4lessIS6_ESaISC_EE11_M_leftmostEv
__ZNSt8_Rb_treeIKNSt7__cxx1112basic_stringIcSt11char_traitsIcESaIcEEESt4pairIS6_PKN3RPN4NodeEESt10_Select1stISC_ESt4lessIS6_ESaISC_EE11_M_put_nodeEPSt13_Rb_tree_nodeISC_E
__ZNSt8_Rb_treeIKNSt7__cxx1112basic_stringIcSt11char_traitsIcESaIcEEESt4pairIS6_PKN3RPN4NodeEESt10_Select1stISC_ESt4lessIS6_ESaISC_EE11lower_boundERS6_
__ZNSt8_Rb_treeIKNSt7__cxx1112basic_stringIcSt11char_traitsIcESaIcEEESt4pairIS6_PKN3RPN4NodeEESt10_Select1stISC_ESt4lessIS6_ESaISC_EE12_M_drop_nodeEPSt13_Rb_tree_nodeISC_E
__ZNSt8_Rb_treeIKNSt7__cxx1112basic_stringIcSt11char_traitsIcESaIcEEESt4pairIS6_PKN3RPN4NodeEESt10_Select1stISC_ESt4lessIS6_ESaISC_EE12_M_erase_auxESt23_Rb_tree_const_iteratorISC_E
__ZNSt8_Rb_treeIKNSt7__cxx1112basic_stringIcSt11char_traitsIcESaIcEEESt4pairIS6_PKN3RPN4NodeEESt10_Select1stISC_ESt4lessIS6_ESaISC_EE12_M_rightmostEv
__ZNSt8_Rb_treeIKNSt7__cxx1112basic_stringIcSt11char_traitsIcESaIcEEESt4pairIS6_PKN3RPN4NodeEESt10_Select1stISC_ESt4lessIS6_ESaISC_EE13_M_clone_nodeINSI_11_Alloc_nodeEEEPSt13_Rb_tree_nodeISC_EPKSM_RT_
__ZNSt8_Rb_treeIKNSt7__cxx1112basic_stringIcSt11char_traitsIcESaIcEEESt4pairIS6_PKN3RPN4NodeEESt10_Select1stISC_ESt4lessIS6_ESaISC_EE13_Rb_tree_implISG_Lb1EE13_M_initializeEv
__ZNSt8_Rb_treeIKNSt7__cxx1112basic_stringIcSt11char_traitsIcESaIcEEESt4pairIS6_PKN3RPN4NodeEESt10_Select1stISC_ESt4lessIS6_ESaISC_EE13_Rb_tree_implISG_Lb1EEC1ERKSG_OSaISt13_Rb_tree_nodeISC_EE
__ZNSt8_Rb_treeIKNSt7__cxx1112basic_stringIcSt11char_traitsIcESaIcEEESt4pairIS6_PKN3RPN4NodeEESt10_Select1stISC_ESt4lessIS6_ESaISC_EE13_Rb_tree_implISG_Lb1EEC1Ev
__ZNSt8_Rb_treeIKNSt7__cxx1112basic_stringIcSt11char_traitsIcESaIcEEESt4pairIS6_PKN3RPN4NodeEESt10_Select1stISC_ESt4lessIS6_ESaISC_EE13_Rb_tree_implISG_Lb1EED1Ev
__ZNSt8_Rb_treeIKNSt7__cxx1112basic_stringIcSt11char_traitsIcESaIcEEESt4pairIS6_PKN3RPN4NodeEESt10_Select1stISC_ESt4lessIS6_ESaISC_EE14_M_create_nodeIJRKSC_EEEPSt13_Rb_tree_nodeISC_EDpOT_
__ZNSt8_Rb_treeIKNSt7__cxx1112basic_stringIcSt11char_traitsIcESaIcEEESt4pairIS6_PKN3RPN4NodeEESt10_Select1stISC_ESt4lessIS6_ESaISC_EE14_M_create_nodeIJRKSt21piecewise_construct_tSt5tupleIJRS6_EESN_IJEEEEEPSt13_Rb_tree_nodeISC_EDpOT_
__ZNSt8_Rb_treeIKNSt7__cxx1112basic_stringIcSt11char_traitsIcESaIcEEESt4pairIS6_PKN3RPN4NodeEESt10_Select1stISC_ESt4lessIS6_ESaISC_EE14_M_insert_nodeEPSt18_Rb_tree_node_baseSK_PSt13_Rb_tree_nodeISC_E
__ZNSt8_Rb_treeIKNSt7__cxx1112basic_stringIcSt11char_traitsIcESaIcEEESt4pairIS6_PKN3RPN4NodeEESt10_Select1stISC_ESt4lessIS6_ESaISC_EE14_M_lower_boundEPSt13_Rb_tree_nodeISC_ESL_RS6_
__ZNSt8_Rb_treeIKNSt7__cxx1112basic_stringIcSt11char_traitsIcESaIcEEESt4pairIS6_PKN3RPN4NodeEESt10_Select1stISC_ESt4lessIS6_ESaISC_EE15_M_destroy_nodeEPSt13_Rb_tree_nodeISC_E
__ZNSt8_Rb_treeIKNSt7__cxx1112basic_stringIcSt11char_traitsIcESaIcEEESt4pairIS6_PKN3RPN4NodeEESt10_Select1stISC_ESt4lessIS6_ESaISC_EE17_M_construct_nodeIJRKSC_EEEvPSt13_Rb_tree_nodeISC_EDpOT_
__ZNSt8_Rb_treeIKNSt7__cxx1112basic_stringIcSt11char_traitsIcESaIcEEESt4pairIS6_PKN3RPN4NodeEESt10_Select1stISC_ESt4lessIS6_ESaISC_EE17_M_construct_nodeIJRKSt21piecewise_construct_tSt5tupleIJRS6_EESN_IJEEEEEvPSt13_Rb_tree_nodeISC_EDpOT_
__ZNSt8_Rb_treeIKNSt7__cxx1112basic_stringIcSt11char_traitsIcESaIcEEESt4pairIS6_PKN3RPN4NodeEESt10_Select1stISC_ESt4lessIS6_ESaISC_EE21_M_get_Node_allocatorEv
__ZNSt8_Rb_treeIKNSt7__cxx1112basic_stringIcSt11char_traitsIcESaIcEEESt4pairIS6_PKN3RPN4NodeEESt10_Select1stISC_ESt4lessIS6_ESaISC_EE22_M_emplace_hint_uniqueIJRKSt21piecewise_construct_tSt5tupleIJRS6_EESN_IJEEEEESt17_Rb_tree_iteratorISC_ESt23_Rb_tree_const_iteratorISC_EDpOT_
__ZNSt8_Rb_treeIKNSt7__cxx1112basic_stringIcSt11char_traitsIcESaIcEEESt4pairIS6_PKN3RPN4NodeEESt10_Select1stISC_ESt4lessIS6_ESaISC_EE24_M_get_insert_unique_posERS6_
__ZNSt8_Rb_treeIKNSt7__cxx1112basic_stringIcSt11char_traitsIcESaIcEEESt4pairIS6_PKN3RPN4NodeEESt10_Select1stISC_ESt4lessIS6_ESaISC_EE29_M_get_insert_hint_unique_posESt23_Rb_tree_const_iteratorISC_ERS6_
__ZNSt8_Rb_treeIKNSt7__cxx1112basic_stringIcSt11char_traitsIcESaIcEEESt4pairIS6_PKN3RPN4NodeEESt10_Select1stISC_ESt4lessIS6_ESaISC_EE3endEv
__ZNSt8_Rb_treeIKNSt7__cxx1112basic_stringIcSt11char_traitsIcESaIcEEESt4pairIS6_PKN3RPN4NodeEESt10_Select1stISC_ESt4lessIS6_ESaISC_EE4findERS6_
__ZNSt8_Rb_treeIKNSt7__cxx1112basic_stringIcSt11char_traitsIcESaIcEEESt4pairIS6_PKN3RPN4NodeEESt10_Select1stISC_ESt4lessIS6_ESaISC_EE5beginEv
__ZNSt8_Rb_treeIKNSt7__cxx1112basic_stringIcSt11char_traitsIcESaIcEEESt4pairIS6_PKN3RPN4NodeEESt10_Select1stISC_ESt4lessIS6_ESaISC_EE5eraseB5cxx11ESt17_Rb_tree_iteratorISC_E
__ZNSt8_Rb_treeIKNSt7__cxx1112basic_stringIcSt11char_traitsIcESaIcEEESt4pairIS6_PKN3RPN4NodeEESt10_Select1stISC_ESt4lessIS6_ESaISC_EE6_M_endEv
__ZNSt8_Rb_treeIKNSt7__cxx1112basic_stringIcSt11char_traitsIcESaIcEEESt4pairIS6_PKN3RPN4NodeEESt10_Select1stISC_ESt4lessIS6_ESaISC_EE6_S_keyEPKSt13_Rb_tree_nodeISC_E
__ZNSt8_Rb_treeIKNSt7__cxx1112basic_stringIcSt11char_traitsIcESaIcEEESt4pairIS6_PKN3RPN4NodeEESt10_Select1stISC_ESt4lessIS6_ESaISC_EE6_S_keyEPKSt18_Rb_tree_node_base
__ZNSt8_Rb_treeIKNSt7__cxx1112basic_stringIcSt11char_traitsIcESaIcEEESt4pairIS6_PKN3RPN4NodeEESt10_Select1stISC_ESt4lessIS6_ESaISC_EE7_M_copyEPKSt13_Rb_tree_nodeISC_EPSK_
__ZNSt8_Rb_treeIKNSt7__cxx1112basic_stringIcSt11char_traitsIcESaIcEEESt4pairIS6_PKN3RPN4NodeEESt10_Select1stISC_ESt4lessIS6_ESaISC_EE7_M_copyINSI_11_Alloc_nodeEEEPSt13_Rb_tree_nodeISC_EPKSM_SN_RT_
__ZNSt8_Rb_treeIKNSt7__cxx1112basic_stringIcSt11char_traitsIcESaIcEEESt4pairIS6_PKN3RPN4NodeEESt10_Select1stISC_ESt4lessIS6_ESaISC_EE7_M_rootEv
__ZNSt8_Rb_treeIKNSt7__cxx1112basic_stringIcSt11char_traitsIcESaIcEEESt4pairIS6_PKN3RPN4NodeEESt10_Select1stISC_ESt4lessIS6_ESaISC_EE7_S_leftEPKSt18_Rb_tree_node_base
__ZNSt8_Rb_treeIKNSt7__cxx1112basic_stringIcSt11char_traitsIcESaIcEEESt4pairIS6_PKN3RPN4NodeEESt10_Select1stISC_ESt4lessIS6_ESaISC_EE7_S_leftEPSt18_Rb_tree_node_base
__ZNSt8_Rb_treeIKNSt7__cxx1112basic_stringIcSt11char_traitsIcESaIcEEESt4pairIS6_PKN3RPN4NodeEESt10_Select1stISC_ESt4lessIS6_ESaISC_EE8_M_beginEv
__ZNSt8_Rb_treeIKNSt7__cxx1112basic_stringIcSt11char_traitsIcESaIcEEESt4pairIS6_PKN3RPN4NodeEESt10_Select1stISC_ESt4lessIS6_ESaISC_EE8_M_eraseEPSt13_Rb_tree_nodeISC_E
__ZNSt8_Rb_treeIKNSt7__cxx1112basic_stringIcSt11char_traitsIcESaIcEEESt4pairIS6_PKN3RPN4NodeEESt10_Select1stISC_ESt4lessIS6_ESaISC_EE8_S_rightEPKSt18_Rb_tree_node_base
__ZNSt8_Rb_treeIKNSt7__cxx1112basic_stringIcSt11char_traitsIcESaIcEEESt4pairIS6_PKN3RPN4NodeEESt10_Select1stISC_ESt4lessIS6_ESaISC_EE8_S_rightEPSt18_Rb_tree_node_base
__ZNSt8_Rb_treeIKNSt7__cxx1112basic_stringIcSt11char_traitsIcESaIcEEESt4pairIS6_PKN3RPN4NodeEESt10_Select1stISC_ESt4lessIS6_ESaISC_EE8_S_valueEPKSt13_Rb_tree_nodeISC_E
__ZNSt8_Rb_treeIKNSt7__cxx1112basic_stringIcSt11char_traitsIcESaIcEEESt4pairIS6_PKN3RPN4NodeEESt10_Select1stISC_ESt4lessIS6_ESaISC_EE8_S_valueEPKSt18_Rb_tree_node_base
__ZNSt8_Rb_treeIKNSt7__cxx1112basic_stringIcSt11char_traitsIcESaIcEEESt4pairIS6_PKN3RPN4NodeEESt10_Select1stISC_ESt4lessIS6_ESaISC_EEC1ERKSI_
__ZNSt8_Rb_treeIKNSt7__cxx1112basic_stringIcSt11char_traitsIcESaIcEEESt4pairIS6_PKN3RPN4NodeEESt10_Select1stISC_ESt4lessIS6_ESaISC_EEC1Ev
__ZNSt8_Rb_treeIKNSt7__cxx1112basic_stringIcSt11char_traitsIcESaIcEEESt4pairIS6_PKN3RPN4NodeEESt10_Select1stISC_ESt4lessIS6_ESaISC_EED1Ev
__ZNSt8ios_base4setfESt13_Ios_Fmtflags
__ZNSt8ios_base5widthEi
__ZSt10_ConstructIN3RPN6Parser5TokenEJRS2_EEvPT_DpOT0_
__ZSt11__addressofIN3RPN6Parser5TokenEEPT_RS3_
__ZSt12__get_helperILj0ERKNSt7__cxx1112basic_stringIcSt11char_traitsIcESaIcEEEJEERT0_RSt11_Tuple_implIXT_EJS8_DpT1_EE
__ZSt12__miter_baseISt13move_iteratorIPPKN3RPN4NodeEEENSt11_Miter_baseIT_E13iterator_typeES8_
__ZSt12__miter_baseISt13move_iteratorIPdEENSt11_Miter_baseIT_E13iterator_typeES4_
__ZSt12__miter_baseISt13move_iteratorIPiEENSt11_Miter_baseIT_E13iterator_typeES4_
__ZSt12__niter_baseIPPKN3RPN4NodeEENSt11_Niter_baseIT_E13iterator_typeES6_
__ZSt12__niter_baseIPdENSt11_Niter_baseIT_E13iterator_typeES2_
__ZSt12__niter_baseIPiENSt11_Niter_baseIT_E13iterator_typeES2_
__ZSt13__copy_move_aILb1EPPKN3RPN4NodeES4_ET1_T0_S6_S5_
__ZSt13__copy_move_aILb1EPdS0_ET1_T0_S2_S1_
__ZSt13__copy_move_aILb1EPiS0_ET1_T0_S2_S1_
__ZSt14__copy_move_a2ILb1EPPKN3RPN4NodeES4_ET1_T0_S6_S5_
__ZSt14__copy_move_a2ILb1EPdS0_ET1_T0_S2_S1_
__ZSt14__copy_move_a2ILb1EPiS0_ET1_T0_S2_S1_
__ZSt18uninitialized_copyIPN3RPN6Parser5TokenES3_ET0_T_S5_S4_
__ZSt18uninitialized_copyISt13move_iteratorIPPKN3RPN4NodeEES5_ET0_T_S8_S7_
__ZSt18uninitialized_copyISt13move_iteratorIPdES1_ET0_T_S4_S3_
__ZSt18uninitialized_copyISt13move_iteratorIPiES1_ET0_T_S4_S3_
__ZSt22__uninitialized_copy_aIPN3RPN6Parser5TokenES3_S2_ET0_T_S5_S4_RSaIT1_E
__ZSt22__uninitialized_copy_aISt13move_iteratorIPPKN3RPN4NodeEES5_S4_ET0_T_S8_S7_RSaIT1_E
__ZSt22__uninitialized_copy_aISt13move_iteratorIPdES1_dET0_T_S4_S3_RSaIT1_E
__ZSt22__uninitialized_copy_aISt13move_iteratorIPiES1_iET0_T_S4_S3_RSaIT1_E
__ZSt32__make_move_if_noexcept_iteratorIPN3RPN6Parser5TokenES3_ET0_T_
__ZSt32__make_move_if_noexcept_iteratorIPPKN3RPN4NodeESt13move_iteratorIS4_EET0_T_
__ZSt32__make_move_if_noexcept_iteratorIPdSt13move_iteratorIS0_EET0_T_
__ZSt32__make_move_if_noexcept_iteratorIPiSt13move_iteratorIS0_EET0_T_
__ZSt34__uninitialized_move_if_noexcept_aIPN3RPN6Parser5TokenES3_SaIS2_EET0_T_S6_S5_RT1_
__ZSt34__uninitialized_move_if_noexcept_aIPPKN3RPN4NodeES4_SaIS3_EET0_T_S7_S6_RT1_
__ZSt34__uninitialized_move_if_noexcept_aIPdS0_SaIdEET0_T_S3_S2_RT1_
__ZSt34__uninitialized_move_if_noexcept_aIPiS0_SaIiEET0_T_S3_S2_RT1_
__ZSt3getILj0EJRKNSt7__cxx1112basic_stringIcSt11char_traitsIcESaIcEEEEERNSt13tuple_elementIXT_ESt5tupleIJDpT0_EEE4typeERSC_
__ZSt3maxIjERKT_S2_S2_
__ZSt4copyISt13move_iteratorIPPKN3RPN4NodeEES5_ET0_T_S8_S7_
__ZSt4copyISt13move_iteratorIPdES1_ET0_T_S4_S3_
__ZSt4copyISt13move_iteratorIPiES1_ET0_T_S4_S3_
__ZSt4moveIRSaISt13_Rb_tree_nodeISt4pairIKNSt7__cxx1112basic_stringIcSt11char_traitsIcESaIcEEEPKN3RPN4NodeEEEEEONSt16remove_referenceIT_E4typeEOSI_
__ZSt4moveIRiEONSt16remove_referenceIT_E4typeEOS2_
__ZSt7forwardIRKN3RPN6Parser5TokenEEOT_RNSt16remove_referenceIS5_E4typeE
__ZSt7forwardIRKNSt7__cxx1112basic_stringIcSt11char_traitsIcESaIcEEEEOT_RNSt16remove_referenceIS8_E4typeE
__ZSt7forwardIRKPKN3RPN4NodeEEOT_RNSt16remove_referenceIS6_E4typeE
__ZSt7forwardIRKSt21piecewise_construct_tEOT_RNSt16remove_referenceIS3_E4typeE
__ZSt7forwardIRKSt4pairIKNSt7__cxx1112basic_stringIcSt11char_traitsIcESaIcEEEPKN3RPN4NodeEEEOT_RNSt16remove_referenceISF_E4typeE
__ZSt7forwardIRKdEOT_RNSt16remove_referenceIS2_E4typeE
__ZSt7forwardIRN3RPN6Parser5TokenEEOT_RNSt16remove_referenceIS4_E4typeE
__ZSt7forwardIRPSt13_Rb_tree_nodeISt4pairIKNSt7__cxx1112basic_stringIcSt11char_traitsIcESaIcEEEPKN3RPN4NodeEEEEOT_RNSt16remove_referenceISH_E4typeE
__ZSt7forwardIRPSt18_Rb_tree_node_baseEOT_RNSt16remove_referenceIS3_E4typeE
__ZSt7forwardISt5tupleIJEEEOT_RNSt16remove_referenceIS2_E4typeE
__ZSt7forwardISt5tupleIJRKNSt7__cxx1112basic_stringIcSt11char_traitsIcESaIcEEEEEEOT_RNSt16remove_referenceISA_E4typeE
__ZSt7forwardIiEOT_RNSt16remove_referenceIS0_E4typeE
__ZSt8_DestroyIN3RPN6Parser5TokenEEvPT_
__ZSt8_DestroyIPN3RPN6Parser5TokenEEvT_S4_
__ZSt8_DestroyIPN3RPN6Parser5TokenES2_EvT_S4_RSaIT0_E
__ZSt8_DestroyIPPKN3RPN4NodeEEvT_S5_
__ZSt8_DestroyIPPKN3RPN4NodeES3_EvT_S5_RSaIT0_E
__ZSt8_DestroyIPdEvT_S1_
__ZSt8_DestroyIPddEvT_S1_RSaIT0_E
__ZSt8_DestroyIPiEvT_S1_
__ZSt8_DestroyIPiiEvT_S1_RSaIT0_E
__ZSteqIcSt11char_traitsIcESaIcEEbRKNSt7__cxx1112basic_stringIT_T0_T1_EEPKS5_
__ZStltIcSt11char_traitsIcESaIcEEbRKNSt7__cxx1112basic_stringIT_T0_T1_EESA_
__ZStoRRSt13_Ios_FmtflagsS_
__ZStorSt13_Ios_FmtflagsS_
__ZTIN3RPN10CosineNodeE
__ZTIN3RPN10ModuloNodeE
__ZTIN3RPN10SecantNodeE
__ZTIN3RPN11ArcSineNodeE
__ZTIN3RPN11BracketNodeE
__ZTIN3RPN11InfixParserE
__ZTIN3RPN11MaximumNodeE
__ZTIN3RPN11MinimumNodeE
__ZTIN3RPN11TangentNodeE
__ZTIN3RPN12AdditionNodeE
__ZTIN3RPN12ArgumentNodeE
__ZTIN3RPN12ConstantNodeE
__ZTIN3RPN12CosecantNodeE
__ZTIN3RPN12DivisionNodeE
__ZTIN3RPN12FunctionNodeE
__ZTIN3RPN12NegationNodeE
__ZTIN3RPN12OperatorNodeE
__ZTIN3RPN12VariableNodeE
__ZTIN3RPN13ArcCosineNodeE
__ZTIN3RPN13ArcSecantNodeE
__ZTIN3RPN13CotangentNodeE
__ZTIN3RPN13FactorialNodeE
__ZTIN3RPN13LogarithmNodeE
__ZTIN3RPN13PostfixParserE
__ZTIN3RPN14ArcTangentNodeE
__ZTIN3RPN14ExpressionNodeE
__ZTIN3RPN14SquareRootNodeE
__ZTIN3RPN15ArcCosecantNodeE
__ZTIN3RPN15ArcTangent2NodeE
__ZTIN3RPN15ExponentialNodeE
__ZTIN3RPN15LeftBracketNodeE
__ZTIN3RPN15SubtractionNodeE
__ZTIN3RPN16ArcCotangentNodeE
__ZTIN3RPN16RightBracketNodeE
__ZTIN3RPN17AbsoluteValueNodeE
__ZTIN3RPN17ArcCotangent2NodeE
__ZTIN3RPN18ExponentiationNodeE
__ZTIN3RPN18HyperbolicSineNodeE
__ZTIN3RPN18MultiplicationNodeE
__ZTIN3RPN19BinaryLogarithmNodeE
__ZTIN3RPN20DecadicLogarithmNodeE
__ZTIN3RPN20HyperbolicCosineNodeE
__ZTIN3RPN20HyperbolicSecantNodeE
__ZTIN3RPN20NaturalLogarithmNodeE
__ZTIN3RPN21HyperbolicArcSineNodeE
__ZTIN3RPN21HyperbolicTangentNodeE
__ZTIN3RPN22HyperbolicCosecantNodeE
__ZTIN3RPN23HyperbolicArcCosineNodeE
__ZTIN3RPN23HyperbolicArcSecantNodeE
__ZTIN3RPN23HyperbolicCotangentNodeE
__ZTIN3RPN24HyperbolicArcTangentNodeE
__ZTIN3RPN25HyperbolicArcCosecantNodeE
__ZTIN3RPN26HyperbolicArcCotangentNodeE
__ZTIN3RPN4NodeE
__ZTIN3RPN6ParserE
__ZTIN3RPN8RootNodeE
__ZTIN3RPN8SineNodeE
__ZTIN3RPN9CommaNodeE
__ZTIN3RPN9ExceptionE
__ZTIN3RPN9PowerNodeE
__ZTIN3RPN9ValueNodeE
__ZTISt13runtime_error
__ZTISt9exception
__ZTSN3RPN10CosineNodeE
__ZTSN3RPN10ModuloNodeE
__ZTSN3RPN10SecantNodeE
__ZTSN3RPN11ArcSineNodeE
__ZTSN3RPN11BracketNodeE
__ZTSN3RPN11InfixParserE
__ZTSN3RPN11MaximumNodeE
__ZTSN3RPN11MinimumNodeE
__ZTSN3RPN11TangentNodeE
__ZTSN3RPN12AdditionNodeE
__ZTSN3RPN12ArgumentNodeE
__ZTSN3RPN12ConstantNodeE
__ZTSN3RPN12CosecantNodeE
__ZTSN3RPN12DivisionNodeE
__ZTSN3RPN12FunctionNodeE
__ZTSN3RPN12NegationNodeE
__ZTSN3RPN12OperatorNodeE
__ZTSN3RPN12VariableNodeE
__ZTSN3RPN13ArcCosineNodeE
__ZTSN3RPN13ArcSecantNodeE
__ZTSN3RPN13CotangentNodeE
__ZTSN3RPN13FactorialNodeE
__ZTSN3RPN13LogarithmNodeE
__ZTSN3RPN13PostfixParserE
__ZTSN3RPN14ArcTangentNodeE
__ZTSN3RPN14ExpressionNodeE
__ZTSN3RPN14SquareRootNodeE
__ZTSN3RPN15ArcCosecantNodeE
__ZTSN3RPN15ArcTangent2NodeE
__ZTSN3RPN15ExponentialNodeE
__ZTSN3RPN15LeftBracketNodeE
__ZTSN3RPN15SubtractionNodeE
__ZTSN3RPN16ArcCotangentNodeE
__ZTSN3RPN16RightBracketNodeE
__ZTSN3RPN17AbsoluteValueNodeE
__ZTSN3RPN17ArcCotangent2NodeE
__ZTSN3RPN18ExponentiationNodeE
__ZTSN3RPN18HyperbolicSineNodeE
__ZTSN3RPN18MultiplicationNodeE
__ZTSN3RPN19BinaryLogarithmNodeE
__ZTSN3RPN20DecadicLogarithmNodeE
__ZTSN3RPN20HyperbolicCosineNodeE
__ZTSN3RPN20HyperbolicSecantNodeE
__ZTSN3RPN20NaturalLogarithmNodeE
__ZTSN3RPN21HyperbolicArcSineNodeE
__ZTSN3RPN21HyperbolicTangentNodeE
__ZTSN3RPN22HyperbolicCosecantNodeE
__ZTSN3RPN23HyperbolicArcCosineNodeE
__ZTSN3RPN23HyperbolicArcSecantNodeE
__ZTSN3RPN23HyperbolicCotangentNodeE
__ZTSN3RPN24HyperbolicArcTangentNodeE
__ZTSN3RPN25HyperbolicArcCosecantNodeE
__ZTSN3RPN26HyperbolicArcCotangentNodeE
__ZTSN3RPN4NodeE
__ZTSN3RPN6ParserE
__ZTSN3RPN8RootNodeE
__ZTSN3RPN8SineNodeE
__ZTSN3RPN9CommaNodeE
__ZTSN3RPN9ExceptionE
__ZTSN3RPN9PowerNodeE
__ZTSN3RPN9ValueNodeE
__ZTSSt13runtime_error
__ZTSSt9exception
__ZTVN3RPN10CosineNodeE
__ZTVN3RPN10ModuloNodeE
__ZTVN3RPN10SecantNodeE
__ZTVN3RPN11ArcSineNodeE
__ZTVN3RPN11BracketNodeE
__ZTVN3RPN11InfixParserE
__ZTVN3RPN11MaximumNodeE
__ZTVN3RPN11MinimumNodeE
__ZTVN3RPN11TangentNodeE
__ZTVN3RPN12AdditionNodeE
__ZTVN3RPN12ArgumentNodeE
__ZTVN3RPN12ConstantNodeE
__ZTVN3RPN12CosecantNodeE
__ZTVN3RPN12DivisionNodeE
__ZTVN3RPN12FunctionNodeE
__ZTVN3RPN12NegationNodeE
__ZTVN3RPN12OperatorNodeE
__ZTVN3RPN12VariableNodeE
__ZTVN3RPN13ArcCosineNodeE
__ZTVN3RPN13ArcSecantNodeE
__ZTVN3RPN13CotangentNodeE
__ZTVN3RPN13FactorialNodeE
__ZTVN3RPN13LogarithmNodeE
__ZTVN3RPN13PostfixParserE
__ZTVN3RPN14ArcTangentNodeE
__ZTVN3RPN14ExpressionNodeE
__ZTVN3RPN14SquareRootNodeE
__ZTVN3RPN15ArcCosecantNodeE
__ZTVN3RPN15ArcTangent2NodeE
__ZTVN3RPN15ExponentialNodeE
__ZTVN3RPN15LeftBracketNodeE
__ZTVN3RPN15SubtractionNodeE
__ZTVN3RPN16ArcCotangentNodeE
__ZTVN3RPN16RightBracketNodeE
__ZTVN3RPN17AbsoluteValueNodeE
__ZTVN3RPN17ArcCotangent2NodeE
__ZTVN3RPN18ExponentiationNodeE
__ZTVN3RPN18HyperbolicSineNodeE
__ZTVN3RPN18MultiplicationNodeE
__ZTVN3RPN19BinaryLogarithmNodeE
__ZTVN3RPN20DecadicLogarithmNodeE
__ZTVN3RPN20HyperbolicCosineNodeE
__ZTVN3RPN20HyperbolicSecantNodeE
__ZTVN3RPN20NaturalLogarithmNodeE
__ZTVN3RPN21HyperbolicArcSineNodeE
__ZTVN3RPN21HyperbolicTangentNodeE
__ZTVN3RPN22HyperbolicCosecantNodeE
__ZTVN3RPN23HyperbolicArcCosineNodeE
__ZTVN3RPN23HyperbolicArcSecantNodeE
__ZTVN3RPN23HyperbolicCotangentNodeE
__ZTVN3RPN24HyperbolicArcTangentNodeE
__ZTVN3RPN25HyperbolicArcCosecantNodeE
__ZTVN3RPN26HyperbolicArcCotangentNodeE
__ZTVN3RPN4NodeE
__ZTVN3RPN6ParserE
__ZTVN3RPN8RootNodeE
__ZTVN3RPN8SineNodeE
__ZTVN3RPN9CommaNodeE
__ZTVN3RPN9ExceptionE
__ZTVN3RPN9PowerNodeE
__ZTVN3RPN9ValueNodeE
__ZdlPvS_
__ZnwjPv
main
